#include <math.h>
#include <stdio.h>
#include <stdlib.h>
#include <string.h>

int main()
{
	int n[1000],m,i,j;
	double jg[100], sum[1000];
	scanf("%d", &m);
	for(i=0;i<m;i++)
	{
		scanf("%d", &n[i]);
	}
	for(i=0;i<m;i++)
	{
		jg[0]=2*1.0/1;
		sum[i]=jg[0];
		for(j=0;j<n[i]-1;j++)
		{
			jg[j+1]=1+(1*1.0/jg[j]);
			sum[i]+=jg[j+1];	
		}
		printf("%.3lf\n", sum[i]);
	}
	return 0;
}