; ModuleID = 'source-C-CXX/28/213.c'
source_filename = "source-C-CXX/28/213.c"
target datalayout = "e-m:e-p270:32:32-p271:32:32-p272:64:64-i64:64-f80:128-n8:16:32:64-S128"
target triple = "x86_64-pc-linux-gnu"

@.str = private unnamed_addr constant [3 x i8] c"%d\00", align 1
@.str.1 = private unnamed_addr constant [7 x i8] c"%.3lf\0A\00", align 1

; Function Attrs: nofree nounwind sspstrong uwtable
define dso_local i32 @main() local_unnamed_addr #0 {
  %1 = alloca [1000 x i32], align 16
  %2 = alloca i32, align 4
  %3 = bitcast [1000 x i32]* %1 to i8*
  call void @llvm.lifetime.start.p0i8(i64 4000, i8* nonnull %3) #3
  %4 = bitcast i32* %2 to i8*
  call void @llvm.lifetime.start.p0i8(i64 4, i8* nonnull %4) #3
  %5 = call i32 (i8*, ...) @__isoc99_scanf(i8* getelementptr inbounds ([3 x i8], [3 x i8]* @.str, i64 0, i64 0), i32* nonnull %2)
  %6 = load i32, i32* %2, align 4, !tbaa !5
  %7 = icmp sgt i32 %6, 0
  br i1 %7, label %10, label %58

8:                                                ; preds = %10
  %9 = icmp sgt i32 %15, 0
  br i1 %9, label %18, label %58

10:                                               ; preds = %0, %10
  %11 = phi i64 [ %14, %10 ], [ 0, %0 ]
  %12 = getelementptr inbounds [1000 x i32], [1000 x i32]* %1, i64 0, i64 %11
  %13 = call i32 (i8*, ...) @__isoc99_scanf(i8* getelementptr inbounds ([3 x i8], [3 x i8]* @.str, i64 0, i64 0), i32* nonnull %12)
  %14 = add nuw nsw i64 %11, 1
  %15 = load i32, i32* %2, align 4, !tbaa !5
  %16 = sext i32 %15 to i64
  %17 = icmp slt i64 %14, %16
  br i1 %17, label %10, label %8, !llvm.loop !9

18:                                               ; preds = %8, %51
  %19 = phi i64 [ %54, %51 ], [ 0, %8 ]
  %20 = getelementptr inbounds [1000 x i32], [1000 x i32]* %1, i64 0, i64 %19
  %21 = load i32, i32* %20, align 4, !tbaa !5
  %22 = icmp sgt i32 %21, 1
  br i1 %22, label %23, label %51

23:                                               ; preds = %18
  %24 = add nsw i32 %21, -1
  %25 = zext i32 %24 to i64
  %26 = and i64 %25, 1
  %27 = icmp eq i32 %24, 1
  br i1 %27, label %42, label %28

28:                                               ; preds = %23
  %29 = and i64 %25, 4294967294
  br label %30

30:                                               ; preds = %30, %28
  %31 = phi double [ 2.000000e+00, %28 ], [ %38, %30 ]
  %32 = phi double [ 2.000000e+00, %28 ], [ %39, %30 ]
  %33 = phi i64 [ %29, %28 ], [ %40, %30 ]
  %34 = fdiv double 1.000000e+00, %31
  %35 = fadd double %34, 1.000000e+00
  %36 = fadd double %32, %35
  %37 = fdiv double 1.000000e+00, %35
  %38 = fadd double %37, 1.000000e+00
  %39 = fadd double %36, %38
  %40 = add i64 %33, -2
  %41 = icmp eq i64 %40, 0
  br i1 %41, label %42, label %30, !llvm.loop !11

42:                                               ; preds = %30, %23
  %43 = phi double [ undef, %23 ], [ %39, %30 ]
  %44 = phi double [ 2.000000e+00, %23 ], [ %38, %30 ]
  %45 = phi double [ 2.000000e+00, %23 ], [ %39, %30 ]
  %46 = icmp eq i64 %26, 0
  br i1 %46, label %51, label %47

47:                                               ; preds = %42
  %48 = fdiv double 1.000000e+00, %44
  %49 = fadd double %48, 1.000000e+00
  %50 = fadd double %45, %49
  br label %51

51:                                               ; preds = %47, %42, %18
  %52 = phi double [ 2.000000e+00, %18 ], [ %43, %42 ], [ %50, %47 ]
  %53 = call i32 (i8*, ...) @printf(i8* nonnull dereferenceable(1) getelementptr inbounds ([7 x i8], [7 x i8]* @.str.1, i64 0, i64 0), double %52)
  %54 = add nuw nsw i64 %19, 1
  %55 = load i32, i32* %2, align 4, !tbaa !5
  %56 = sext i32 %55 to i64
  %57 = icmp slt i64 %54, %56
  br i1 %57, label %18, label %58, !llvm.loop !12

58:                                               ; preds = %51, %0, %8
  call void @llvm.lifetime.end.p0i8(i64 4, i8* nonnull %4) #3
  call void @llvm.lifetime.end.p0i8(i64 4000, i8* nonnull %3) #3
  ret i32 0
}

; Function Attrs: argmemonly mustprogress nofree nosync nounwind willreturn
declare void @llvm.lifetime.start.p0i8(i64 immarg, i8* nocapture) #1

; Function Attrs: nofree nounwind
declare noundef i32 @__isoc99_scanf(i8* nocapture noundef readonly, ...) local_unnamed_addr #2

; Function Attrs: nofree nounwind
declare noundef i32 @printf(i8* nocapture noundef readonly, ...) local_unnamed_addr #2

; Function Attrs: argmemonly mustprogress nofree nosync nounwind willreturn
declare void @llvm.lifetime.end.p0i8(i64 immarg, i8* nocapture) #1


!llvm.module.flags = !{!0, !1, !2, !3}
!llvm.ident = !{!4}

!0 = !{i32 1, !"wchar_size", i32 4}
!1 = !{i32 7, !"PIC Level", i32 2}
!2 = !{i32 7, !"PIE Level", i32 2}
!3 = !{i32 7, !"uwtable", i32 1}
!4 = !{!"clang version 13.0.0"}
!5 = !{!6, !6, i64 0}
!6 = !{!"int", !7, i64 0}
!7 = !{!"omnipotent char", !8, i64 0}
!8 = !{!"Simple C/C++ TBAA"}
!9 = distinct !{!9, !10}
!10 = !{!"llvm.loop.mustprogress"}
!11 = distinct !{!11, !10}
!12 = distinct !{!12, !10}
